; Function Attrs: mustprogress uwtable
define noundef zeroext i1 @_ZN10OpenSubdiv6v3_6_03Far26TopologyRefinerFactoryBase26prepareFaceVaryingChannelsERNS1_15TopologyRefinerE(ptr noundef nonnull readonly align 8 captures(none) dereferenceable(120) %0) local_unnamed_addr #0 align 2 {
  %2 = alloca [1024 x i8], align 16
  %3 = getelementptr inbounds nuw i8, ptr %0, i64 48
  %4 = load ptr, ptr %3, align 8
  %5 = load ptr, ptr %4, align 8
  %6 = load i32, ptr %0, align 8
  %7 = tail call noundef i32 @_ZN10OpenSubdiv6v3_6_03Sdc16SchemeTypeTraits23GetRegularVertexValenceENS1_10SchemeTypeE(i32 noundef %6)
  %8 = sdiv i32 %7, 2
  %9 = load ptr, ptr %3, align 8
  %10 = load ptr, ptr %9, align 8
  %11 = getelementptr inbounds nuw i8, ptr %10, i64 456
  %12 = getelementptr inbounds nuw i8, ptr %10, i64 464
  %13 = load ptr, ptr %12, align 8
  %14 = load ptr, ptr %11, align 8
  %15 = ptrtoint ptr %13 to i64
  %16 = ptrtoint ptr %14 to i64
  %17 = sub i64 %15, %16
  %18 = lshr exact i64 %17, 3
  %19 = trunc i64 %18 to i32
  %20 = icmp slt i32 %19, 1
  br i1 %20, label %.loopexit, label %.lr.ph

.lr.ph:                                           ; preds = %1, %25
  %.015 = phi i32 [ %26, %25 ], [ 0, %1 ]
  %21 = tail call noundef i32 @_ZNK10OpenSubdiv6v3_6_03Vtr8internal5Level16getNumFVarValuesEi(ptr noundef nonnull align 8 dereferenceable(480) %5, i32 noundef %.015)
  %22 = icmp eq i32 %21, 0
  br i1 %22, label %23, label %25

23:                                               ; preds = %.lr.ph
  %24 = call i32 (ptr, i64, ptr, ...) @snprintf(ptr noundef nonnull dereferenceable(1) %2, i64 noundef 1024, ptr noundef nonnull @.str.10, i32 noundef %.015) #10
  call void (i32, ptr, ...) @_ZN10OpenSubdiv6v3_6_03Far5ErrorENS1_9ErrorTypeEPKcz(i32 noundef 4, ptr noundef nonnull %2)
  br label %.loopexit

25:                                               ; preds = %.lr.ph
  tail call void @_ZN10OpenSubdiv6v3_6_03Vtr8internal5Level27completeFVarChannelTopologyEii(ptr noundef nonnull align 8 dereferenceable(480) %5, i32 noundef %.015, i32 noundef %8)
  %26 = add nuw nsw i32 %.015, 1
  %27 = load ptr, ptr %3, align 8
  %28 = load ptr, ptr %27, align 8
  %29 = getelementptr inbounds nuw i8, ptr %28, i64 456
  %30 = getelementptr inbounds nuw i8, ptr %28, i64 464
  %31 = load ptr, ptr %30, align 8
  %32 = load ptr, ptr %29, align 8
  %33 = ptrtoint ptr %31 to i64
  %34 = ptrtoint ptr %32 to i64
  %35 = sub i64 %33, %34
  %36 = lshr exact i64 %35, 3
  %37 = trunc i64 %36 to i32
  %.not = icmp slt i32 %26, %37
  br i1 %.not, label %.lr.ph, label %.loopexit, !llvm.loop !13

.loopexit:                                        ; preds = %25, %1, %23
  %38 = phi i1 [ false, %23 ], [ true, %1 ], [ true, %25 ]
  ret i1 %38
}